target datalayout = "e-m:e-p270:32:32-p271:32:32-p272:64:64-i64:64-i128:128-f80:128-n8:16:32:64-S128"
target triple = "x86_64-pc-linux-gnu"

%struct.HASH_SEQ_STATUS = type { ptr, i32, ptr, i8, i32 }
%struct.xl_invalid_page = type { %struct.xl_invalid_page_key, i8 }
%struct.xl_invalid_page_key = type { %struct.RelFileLocator, i32, i32 }
%struct.RelFileLocator = type { i32, i32, i32 }

@invalid_page_tab = internal global ptr null, align 8
@.str.1 = private unnamed_addr constant [12 x i8] c"xlogutils.c\00", align 1
@.str.15 = private unnamed_addr constant [40 x i8] c"page %u of relation %s has been dropped\00", align 1
@__func__.forget_invalid_pages = private unnamed_addr constant [21 x i8] c"forget_invalid_pages\00", align 1
@.str.16 = private unnamed_addr constant [21 x i8] c"hash table corrupted\00", align 1

; Function Attrs: nounwind uwtable
define internal void @forget_invalid_pages(i64 %0, i32 %1, i32 noundef %2, i32 noundef %3) #0 {
  %5 = alloca %struct.RelFileLocator, align 4
  %6 = alloca { i64, i32 }, align 4
  %7 = alloca i32, align 4
  %8 = alloca i32, align 4
  %9 = alloca %struct.HASH_SEQ_STATUS, align 8
  %10 = alloca ptr, align 8
  %11 = alloca i32, align 4
  %12 = alloca ptr, align 8
  %13 = getelementptr inbounds nuw { i64, i32 }, ptr %6, i32 0, i32 0
  store i64 %0, ptr %13, align 4
  %14 = getelementptr inbounds nuw { i64, i32 }, ptr %6, i32 0, i32 1
  store i32 %1, ptr %14, align 4
  call void @llvm.memcpy.p0.p0.i64(ptr align 4 %5, ptr align 4 %6, i64 12, i1 false)
  store i32 %2, ptr %7, align 4
  store i32 %3, ptr %8, align 4
  call void @llvm.lifetime.start.p0(i64 32, ptr %9) #10
  call void @llvm.lifetime.start.p0(i64 8, ptr %10) #10
  %15 = load ptr, ptr @invalid_page_tab, align 8
  %16 = icmp eq ptr %15, null
  br i1 %16, label %17, label %18

17:                                               ; preds = %4
  store i32 1, ptr %11, align 4
  br label %120

18:                                               ; preds = %4
  %19 = load ptr, ptr @invalid_page_tab, align 8
  call void @hash_seq_init(ptr noundef %9, ptr noundef %19)
  br label %20

20:                                               ; preds = %118, %18
  %21 = call ptr @hash_seq_search(ptr noundef %9)
  store ptr %21, ptr %10, align 8
  %22 = icmp ne ptr %21, null
  br i1 %22, label %23, label %119

23:                                               ; preds = %20
  %24 = load ptr, ptr %10, align 8
  %25 = getelementptr inbounds nuw %struct.xl_invalid_page, ptr %24, i32 0, i32 0
  %26 = getelementptr inbounds nuw %struct.xl_invalid_page_key, ptr %25, i32 0, i32 0
  %27 = getelementptr inbounds nuw %struct.RelFileLocator, ptr %26, i32 0, i32 2
  %28 = load i32, ptr %27, align 4
  %29 = getelementptr inbounds nuw %struct.RelFileLocator, ptr %5, i32 0, i32 2
  %30 = load i32, ptr %29, align 4
  %31 = icmp eq i32 %28, %30
  br i1 %31, label %32, label %118

32:                                               ; preds = %23
  %33 = load ptr, ptr %10, align 8
  %34 = getelementptr inbounds nuw %struct.xl_invalid_page, ptr %33, i32 0, i32 0
  %35 = getelementptr inbounds nuw %struct.xl_invalid_page_key, ptr %34, i32 0, i32 0
  %36 = getelementptr inbounds nuw %struct.RelFileLocator, ptr %35, i32 0, i32 1
  %37 = load i32, ptr %36, align 4
  %38 = getelementptr inbounds nuw %struct.RelFileLocator, ptr %5, i32 0, i32 1
  %39 = load i32, ptr %38, align 4
  %40 = icmp eq i32 %37, %39
  br i1 %40, label %41, label %118

41:                                               ; preds = %32
  %42 = load ptr, ptr %10, align 8
  %43 = getelementptr inbounds nuw %struct.xl_invalid_page, ptr %42, i32 0, i32 0
  %44 = getelementptr inbounds nuw %struct.xl_invalid_page_key, ptr %43, i32 0, i32 0
  %45 = getelementptr inbounds nuw %struct.RelFileLocator, ptr %44, i32 0, i32 0
  %46 = load i32, ptr %45, align 4
  %47 = getelementptr inbounds nuw %struct.RelFileLocator, ptr %5, i32 0, i32 0
  %48 = load i32, ptr %47, align 4
  %49 = icmp eq i32 %46, %48
  br i1 %49, label %50, label %118

50:                                               ; preds = %41
  %51 = load ptr, ptr %10, align 8
  %52 = getelementptr inbounds nuw %struct.xl_invalid_page, ptr %51, i32 0, i32 0
  %53 = getelementptr inbounds nuw %struct.xl_invalid_page_key, ptr %52, i32 0, i32 1
  %54 = load i32, ptr %53, align 4
  %55 = load i32, ptr %7, align 4
  %56 = icmp eq i32 %54, %55
  br i1 %56, label %57, label %118

57:                                               ; preds = %50
  %58 = load ptr, ptr %10, align 8
  %59 = getelementptr inbounds nuw %struct.xl_invalid_page, ptr %58, i32 0, i32 0
  %60 = getelementptr inbounds nuw %struct.xl_invalid_page_key, ptr %59, i32 0, i32 2
  %61 = load i32, ptr %60, align 4
  %62 = load i32, ptr %8, align 4
  %63 = icmp uge i32 %61, %62
  br i1 %63, label %64, label %118

64:                                               ; preds = %57
  %65 = call zeroext i1 @message_level_is_interesting(i32 noundef 13)
  br i1 %65, label %66, label %100

66:                                               ; preds = %64
  call void @llvm.lifetime.start.p0(i64 8, ptr %12) #10
  %67 = load ptr, ptr %10, align 8
  %68 = getelementptr inbounds nuw %struct.xl_invalid_page, ptr %67, i32 0, i32 0
  %69 = getelementptr inbounds nuw %struct.xl_invalid_page_key, ptr %68, i32 0, i32 0
  %70 = getelementptr inbounds nuw %struct.RelFileLocator, ptr %69, i32 0, i32 1
  %71 = load i32, ptr %70, align 4
  %72 = load ptr, ptr %10, align 8
  %73 = getelementptr inbounds nuw %struct.xl_invalid_page, ptr %72, i32 0, i32 0
  %74 = getelementptr inbounds nuw %struct.xl_invalid_page_key, ptr %73, i32 0, i32 0
  %75 = getelementptr inbounds nuw %struct.RelFileLocator, ptr %74, i32 0, i32 0
  %76 = load i32, ptr %75, align 4
  %77 = load ptr, ptr %10, align 8
  %78 = getelementptr inbounds nuw %struct.xl_invalid_page, ptr %77, i32 0, i32 0
  %79 = getelementptr inbounds nuw %struct.xl_invalid_page_key, ptr %78, i32 0, i32 0
  %80 = getelementptr inbounds nuw %struct.RelFileLocator, ptr %79, i32 0, i32 2
  %81 = load i32, ptr %80, align 4
  %82 = load i32, ptr %7, align 4
  %83 = call ptr @GetRelationPath(i32 noundef %71, i32 noundef %76, i32 noundef %81, i32 noundef -1, i32 noundef %82)
  store ptr %83, ptr %12, align 8
  br label %84

84:                                               ; preds = %66
  br i1 false, label %85, label %87

85:                                               ; preds = %84
  %86 = call zeroext i1 @errstart_cold(i32 noundef 13, ptr noundef null) #11
  br i1 %86, label %89, label %96

87:                                               ; preds = %84
  %88 = call zeroext i1 @errstart(i32 noundef 13, ptr noundef null)
  br i1 %88, label %89, label %96

89:                                               ; preds = %87, %85
  %90 = load ptr, ptr %10, align 8
  %91 = getelementptr inbounds nuw %struct.xl_invalid_page, ptr %90, i32 0, i32 0
  %92 = getelementptr inbounds nuw %struct.xl_invalid_page_key, ptr %91, i32 0, i32 2
  %93 = load i32, ptr %92, align 4
  %94 = load ptr, ptr %12, align 8
  %95 = call i32 (ptr, ...) @errmsg_internal(ptr noundef @.str.15, i32 noundef %93, ptr noundef %94)
  call void @errfinish(ptr noundef @.str.1, i32 noundef 188, ptr noundef @__func__.forget_invalid_pages)
  br label %96

96:                                               ; preds = %89, %87, %85
  br label %97

97:                                               ; preds = %96
  br label %98

98:                                               ; preds = %97
  %99 = load ptr, ptr %12, align 8
  call void @pfree(ptr noundef %99)
  call void @llvm.lifetime.end.p0(i64 8, ptr %12) #10
  br label %100

100:                                              ; preds = %98, %64
  %101 = load ptr, ptr @invalid_page_tab, align 8
  %102 = load ptr, ptr %10, align 8
  %103 = getelementptr inbounds nuw %struct.xl_invalid_page, ptr %102, i32 0, i32 0
  %104 = call ptr @hash_search(ptr noundef %101, ptr noundef %103, i32 noundef 2, ptr noundef null)
  %105 = icmp eq ptr %104, null
  br i1 %105, label %106, label %117

106:                                              ; preds = %100
  br label %107

107:                                              ; preds = %106
  br i1 true, label %108, label %110

108:                                              ; preds = %107
  %109 = call zeroext i1 @errstart_cold(i32 noundef 21, ptr noundef null) #11
  br i1 %109, label %112, label %114

110:                                              ; preds = %107
  %111 = call zeroext i1 @errstart(i32 noundef 21, ptr noundef null)
  br i1 %111, label %112, label %114

112:                                              ; preds = %110, %108
  %113 = call i32 (ptr, ...) @errmsg_internal(ptr noundef @.str.16)
  call void @errfinish(ptr noundef @.str.1, i32 noundef 195, ptr noundef @__func__.forget_invalid_pages)
  br label %114

114:                                              ; preds = %112, %110, %108
  unreachable

115:                                              ; No predecessors!
  br label %116

116:                                              ; preds = %115
  br label %117

117:                                              ; preds = %116, %100
  br label %118

118:                                              ; preds = %117, %57, %50, %41, %32, %23
  br label %20, !llvm.loop !8

119:                                              ; preds = %20
  store i32 0, ptr %11, align 4
  br label %120

120:                                              ; preds = %119, %17
  call void @llvm.lifetime.end.p0(i64 8, ptr %10) #10
  call void @llvm.lifetime.end.p0(i64 32, ptr %9) #10
  %121 = load i32, ptr %11, align 4
  switch i32 %121, label %123 [
    i32 0, label %122
    i32 1, label %122
  ]

122:                                              ; preds = %120, %120
  ret void

123:                                              ; preds = %120
  unreachable
}