; Function Attrs: nounwind uwtable
define internal fastcc void @forget_invalid_pages(i64 %0, i32 %1, i32 noundef %2, i32 noundef %3) unnamed_addr #0 {
  %5 = alloca %struct.HASH_SEQ_STATUS, align 8
  %.sroa.014.0.extract.trunc = trunc i64 %0 to i32
  %.sroa.215.0.extract.shift = lshr i64 %0, 32
  %.sroa.215.0.extract.trunc = trunc nuw i64 %.sroa.215.0.extract.shift to i32
  call void @llvm.lifetime.start.p0(i64 32, ptr nonnull %5) #8
  %6 = load ptr, ptr @invalid_page_tab, align 8
  %7 = icmp eq ptr %6, null
  br i1 %7, label %.loopexit, label %8

8:                                                ; preds = %4
  call void @hash_seq_init(ptr noundef nonnull %5, ptr noundef nonnull %6) #8
  %9 = call ptr @hash_seq_search(ptr noundef nonnull %5) #8
  %.not19 = icmp eq ptr %9, null
  br i1 %.not19, label %.loopexit, label %.lr.ph

.lr.ph:                                           ; preds = %8, %47
  %10 = phi ptr [ %48, %47 ], [ %9, %8 ]
  %11 = getelementptr inbounds nuw i8, ptr %10, i64 8
  %12 = load i32, ptr %11, align 4
  %13 = icmp eq i32 %12, %1
  br i1 %13, label %14, label %47

14:                                               ; preds = %.lr.ph
  %15 = getelementptr inbounds nuw i8, ptr %10, i64 4
  %16 = load i32, ptr %15, align 4
  %17 = icmp eq i32 %16, %.sroa.215.0.extract.trunc
  br i1 %17, label %18, label %47

18:                                               ; preds = %14
  %19 = load i32, ptr %10, align 4
  %20 = icmp eq i32 %19, %.sroa.014.0.extract.trunc
  br i1 %20, label %21, label %47

21:                                               ; preds = %18
  %22 = getelementptr inbounds nuw i8, ptr %10, i64 12
  %23 = load i32, ptr %22, align 4
  %24 = icmp eq i32 %23, %2
  br i1 %24, label %25, label %47

25:                                               ; preds = %21
  %26 = getelementptr inbounds nuw i8, ptr %10, i64 16
  %27 = load i32, ptr %26, align 4
  %.not18 = icmp ult i32 %27, %3
  br i1 %.not18, label %47, label %28

28:                                               ; preds = %25
  %29 = call zeroext i1 @message_level_is_interesting(i32 noundef 13) #8
  br i1 %29, label %30, label %40

30:                                               ; preds = %28
  %31 = load i32, ptr %15, align 4
  %32 = load i32, ptr %10, align 4
  %33 = load i32, ptr %11, align 4
  %34 = call ptr @GetRelationPath(i32 noundef %31, i32 noundef %32, i32 noundef %33, i32 noundef -1, i32 noundef %2) #8
  %35 = call zeroext i1 @errstart(i32 noundef 13, ptr noundef null) #8
  br i1 %35, label %36, label %39

36:                                               ; preds = %30
  %37 = load i32, ptr %26, align 4
  %38 = call i32 (ptr, ...) @errmsg_internal(ptr noundef nonnull @.str.15, i32 noundef %37, ptr noundef %34) #8
  call void @errfinish(ptr noundef nonnull @.str.1, i32 noundef 188, ptr noundef nonnull @__func__.forget_invalid_pages) #8
  br label %39

39:                                               ; preds = %36, %30
  call void @pfree(ptr noundef %34) #8
  br label %40

40:                                               ; preds = %39, %28
  %41 = load ptr, ptr @invalid_page_tab, align 8
  %42 = call ptr @hash_search(ptr noundef %41, ptr noundef nonnull %10, i32 noundef 2, ptr noundef null) #8
  %43 = icmp eq ptr %42, null
  br i1 %43, label %44, label %47

44:                                               ; preds = %40
  %45 = call zeroext i1 @errstart_cold(i32 noundef 21, ptr noundef null) #9
  call void @llvm.assume(i1 %45)
  %46 = call i32 (ptr, ...) @errmsg_internal(ptr noundef nonnull @.str.16) #8
  call void @errfinish(ptr noundef nonnull @.str.1, i32 noundef 195, ptr noundef nonnull @__func__.forget_invalid_pages) #8
  unreachable

47:                                               ; preds = %40, %25, %21, %18, %14, %.lr.ph
  %48 = call ptr @hash_seq_search(ptr noundef nonnull %5) #8
  %.not = icmp eq ptr %48, null
  br i1 %.not, label %.loopexit, label %.lr.ph, !llvm.loop !8

.loopexit:                                        ; preds = %47, %8, %4
  call void @llvm.lifetime.end.p0(i64 32, ptr nonnull %5) #8
  ret void
}